; Function Attrs: mustprogress uwtable
define internal fastcc void @_ZN8tinygltfL10ParseLightEPNS_5LightEPNSt7__cxx1112basic_stringIcSt11char_traitsIcESaIcEEERKN8nlohmann10basic_jsonISt3mapSt6vectorS7_blmdSaNS9_14adl_serializerEEE(ptr noundef %0, ptr noundef %1, ptr noundef nonnull align 8 dereferenceable(16) %2) unnamed_addr #3 personality ptr @__gxx_personality_v0 {
  %4 = alloca %"class.std::__cxx11::basic_string", align 8
  %5 = alloca %"class.std::allocator", align 1
  %6 = alloca %"class.std::__cxx11::basic_string", align 8
  %7 = alloca %"class.std::__cxx11::basic_string", align 8
  %8 = alloca %"class.std::allocator", align 1
  %9 = alloca %"class.std::__cxx11::basic_string", align 8
  %10 = alloca %"class.std::allocator", align 1
  %11 = alloca %"class.std::__cxx11::basic_string", align 8
  %12 = alloca %"class.std::allocator", align 1
  %13 = alloca %"class.std::__cxx11::basic_string", align 8
  call void @_ZNSaIcEC1Ev(ptr noundef nonnull align 1 dereferenceable(1) %5) #30
  invoke void @_ZNSt7__cxx1112basic_stringIcSt11char_traitsIcESaIcEEC1EPKcRKS3_(ptr noundef nonnull align 8 dereferenceable(32) %4, ptr noundef nonnull @.str.48, ptr noundef nonnull align 1 dereferenceable(1) %5)
          to label %14 unwind label %26

14:                                               ; preds = %3
  call void @_ZNSt7__cxx1112basic_stringIcSt11char_traitsIcESaIcEEC1Ev(ptr noundef nonnull align 8 dereferenceable(32) %6) #30
  %15 = invoke fastcc noundef zeroext i1 @_ZN8tinygltfL19ParseStringPropertyEPNSt7__cxx1112basic_stringIcSt11char_traitsIcESaIcEEES6_RKN8nlohmann10basic_jsonISt3mapSt6vectorS5_blmdSaNS7_14adl_serializerEEERKS5_bSG_(ptr noundef %0, ptr noundef %1, ptr noundef nonnull align 8 dereferenceable(16) %2, ptr noundef nonnull align 8 dereferenceable(32) %4, i1 noundef zeroext false, ptr noundef nonnull align 8 dereferenceable(32) %6)
          to label %16 unwind label %28

16:                                               ; preds = %14
  call void @_ZNSt7__cxx1112basic_stringIcSt11char_traitsIcESaIcEED1Ev(ptr noundef nonnull align 8 dereferenceable(32) %6) #30
  call void @_ZNSt7__cxx1112basic_stringIcSt11char_traitsIcESaIcEED1Ev(ptr noundef nonnull align 8 dereferenceable(32) %4) #30
  call void @_ZNSaIcED1Ev(ptr noundef nonnull align 1 dereferenceable(1) %5) #30
  %17 = getelementptr inbounds i8, ptr %0, i64 32
  call void @_ZNSaIcEC1Ev(ptr noundef nonnull align 1 dereferenceable(1) %8) #30
  invoke void @_ZNSt7__cxx1112basic_stringIcSt11char_traitsIcESaIcEEC1EPKcRKS3_(ptr noundef nonnull align 8 dereferenceable(32) %7, ptr noundef nonnull @.str.236, ptr noundef nonnull align 1 dereferenceable(1) %8)
          to label %18 unwind label %30

18:                                               ; preds = %16
  call void @_ZNSaIcEC1Ev(ptr noundef nonnull align 1 dereferenceable(1) %10) #30
  invoke void @_ZNSt7__cxx1112basic_stringIcSt11char_traitsIcESaIcEEC1EPKcRKS3_(ptr noundef nonnull align 8 dereferenceable(32) %9, ptr noundef nonnull @.str.3, ptr noundef nonnull align 1 dereferenceable(1) %10)
          to label %19 unwind label %32

19:                                               ; preds = %18
  %20 = invoke fastcc noundef zeroext i1 @_ZN8tinygltfL24ParseNumberArrayPropertyEPSt6vectorIdSaIdEEPNSt7__cxx1112basic_stringIcSt11char_traitsIcESaIcEEERKN8nlohmann10basic_jsonISt3mapS0_S9_blmdSaNSB_14adl_serializerEEERKS9_bSJ_(ptr noundef nonnull %17, ptr noundef nonnull align 8 dereferenceable(16) %2, ptr noundef nonnull align 8 dereferenceable(32) %7)
          to label %21 unwind label %34

21:                                               ; preds = %19
  call void @_ZNSt7__cxx1112basic_stringIcSt11char_traitsIcESaIcEED1Ev(ptr noundef nonnull align 8 dereferenceable(32) %9) #30
  call void @_ZNSaIcED1Ev(ptr noundef nonnull align 1 dereferenceable(1) %10) #30
  call void @_ZNSt7__cxx1112basic_stringIcSt11char_traitsIcESaIcEED1Ev(ptr noundef nonnull align 8 dereferenceable(32) %7) #30
  call void @_ZNSaIcED1Ev(ptr noundef nonnull align 1 dereferenceable(1) %8) #30
  call void @_ZNSaIcEC1Ev(ptr noundef nonnull align 1 dereferenceable(1) %12) #30
  invoke void @_ZNSt7__cxx1112basic_stringIcSt11char_traitsIcESaIcEEC1EPKcRKS3_(ptr noundef nonnull align 8 dereferenceable(32) %11, ptr noundef nonnull @.str.90, ptr noundef nonnull align 1 dereferenceable(1) %12)
          to label %22 unwind label %37

22:                                               ; preds = %21
  %23 = getelementptr inbounds i8, ptr %0, i64 56
  call void @_ZNSt7__cxx1112basic_stringIcSt11char_traitsIcESaIcEEC1Ev(ptr noundef nonnull align 8 dereferenceable(32) %13) #30
  %24 = invoke fastcc noundef zeroext i1 @_ZN8tinygltfL19ParseStringPropertyEPNSt7__cxx1112basic_stringIcSt11char_traitsIcESaIcEEES6_RKN8nlohmann10basic_jsonISt3mapSt6vectorS5_blmdSaNS7_14adl_serializerEEERKS5_bSG_(ptr noundef nonnull %23, ptr noundef %1, ptr noundef nonnull align 8 dereferenceable(16) %2, ptr noundef nonnull align 8 dereferenceable(32) %11, i1 noundef zeroext false, ptr noundef nonnull align 8 dereferenceable(32) %13)
          to label %25 unwind label %39

25:                                               ; preds = %22
  call void @_ZNSt7__cxx1112basic_stringIcSt11char_traitsIcESaIcEED1Ev(ptr noundef nonnull align 8 dereferenceable(32) %13) #30
  call void @_ZNSt7__cxx1112basic_stringIcSt11char_traitsIcESaIcEED1Ev(ptr noundef nonnull align 8 dereferenceable(32) %11) #30
  call void @_ZNSaIcED1Ev(ptr noundef nonnull align 1 dereferenceable(1) %12) #30
  ret void

26:                                               ; preds = %3
  %27 = landingpad { ptr, i32 }
          cleanup
  br label %41

28:                                               ; preds = %14
  %29 = landingpad { ptr, i32 }
          cleanup
  call void @_ZNSt7__cxx1112basic_stringIcSt11char_traitsIcESaIcEED1Ev(ptr noundef nonnull align 8 dereferenceable(32) %6) #30
  call void @_ZNSt7__cxx1112basic_stringIcSt11char_traitsIcESaIcEED1Ev(ptr noundef nonnull align 8 dereferenceable(32) %4) #30
  br label %41

30:                                               ; preds = %16
  %31 = landingpad { ptr, i32 }
          cleanup
  br label %41

32:                                               ; preds = %18
  %33 = landingpad { ptr, i32 }
          cleanup
  br label %36

34:                                               ; preds = %19
  %35 = landingpad { ptr, i32 }
          cleanup
  call void @_ZNSt7__cxx1112basic_stringIcSt11char_traitsIcESaIcEED1Ev(ptr noundef nonnull align 8 dereferenceable(32) %9) #30
  br label %36

36:                                               ; preds = %34, %32
  %.pn16 = phi { ptr, i32 } [ %35, %34 ], [ %33, %32 ]
  call void @_ZNSaIcED1Ev(ptr noundef nonnull align 1 dereferenceable(1) %10) #30
  call void @_ZNSt7__cxx1112basic_stringIcSt11char_traitsIcESaIcEED1Ev(ptr noundef nonnull align 8 dereferenceable(32) %7) #30
  br label %41

37:                                               ; preds = %21
  %38 = landingpad { ptr, i32 }
          cleanup
  br label %41

39:                                               ; preds = %22
  %40 = landingpad { ptr, i32 }
          cleanup
  call void @_ZNSt7__cxx1112basic_stringIcSt11char_traitsIcESaIcEED1Ev(ptr noundef nonnull align 8 dereferenceable(32) %13) #30
  call void @_ZNSt7__cxx1112basic_stringIcSt11char_traitsIcESaIcEED1Ev(ptr noundef nonnull align 8 dereferenceable(32) %11) #30
  br label %41

41:                                               ; preds = %37, %39, %30, %36, %26, %28
  %.sink = phi ptr [ %5, %28 ], [ %5, %26 ], [ %8, %36 ], [ %8, %30 ], [ %12, %39 ], [ %12, %37 ]
  %.pn19.pn = phi { ptr, i32 } [ %29, %28 ], [ %27, %26 ], [ %.pn16, %36 ], [ %31, %30 ], [ %40, %39 ], [ %38, %37 ]
  call void @_ZNSaIcED1Ev(ptr noundef nonnull align 1 dereferenceable(1) %.sink) #30
  resume { ptr, i32 } %.pn19.pn
}